; Function Attrs: mustprogress uwtable
define dso_local noundef zeroext i1 @_ZNK3net14QuicConnection13HasQueuedDataEv(ptr noundef nonnull align 8 dereferenceable(3372) %this) local_unnamed_addr #0 align 2 {
entry:
  %pending_version_negotiation_packet_ = getelementptr inbounds i8, ptr %this, i64 808
  %0 = load i8, ptr %pending_version_negotiation_packet_, align 8
  %1 = and i8 %0, 1
  %tobool.not = icmp eq i8 %1, 0
  %queued_packets_ = getelementptr inbounds i8, ptr %this, i64 816
  %2 = load ptr, ptr %queued_packets_, align 8
  %cmp.i = icmp eq ptr %2, %queued_packets_
  %or.cond = select i1 %tobool.not, i1 %cmp.i, i1 false
  br i1 %or.cond, label %lor.rhs, label %lor.end

lor.rhs:                                          ; preds = %entry
  %packet_generator_ = getelementptr inbounds i8, ptr %this, i64 2408
  %call2 = tail call noundef zeroext i1 @_ZNK3net19QuicPacketGenerator15HasQueuedFramesEv(ptr noundef nonnull align 8 dereferenceable(472) %packet_generator_)
  br label %lor.end

lor.end:                                          ; preds = %lor.rhs, %entry
  %3 = phi i1 [ true, %entry ], [ %call2, %lor.rhs ]
  ret i1 %3
}